target datalayout = "e-m:e-p270:32:32-p271:32:32-p272:64:64-i64:64-i128:128-f80:128-n8:16:32:64-S128"
target triple = "x86_64-unknown-linux-gnu"

%struct.acpi_scan_handler = type { ptr, %struct.list_head, ptr, ptr, ptr, ptr, ptr, %struct.acpi_hotplug_profile }
%struct.list_head = type { ptr, ptr }
%struct.acpi_hotplug_profile = type { %struct.kobject, ptr, ptr, i8 }
%struct.kobject = type { ptr, %struct.list_head, ptr, ptr, ptr, ptr, %struct.kref, i8 }
%struct.kref = type { %struct.refcount_struct }
%struct.refcount_struct = type { %struct.atomic_t }
%struct.atomic_t = type { i32 }
%struct.acpi_device_id = type { [16 x i8], i64, i32, i32 }
%struct.bus_type = type { ptr, ptr, ptr, ptr, ptr, ptr, ptr, ptr, ptr, ptr, ptr, ptr, ptr, ptr, ptr, ptr, ptr, ptr, ptr, i8 }

@container_handler = internal global %struct.acpi_scan_handler { ptr @container_device_ids, %struct.list_head zeroinitializer, ptr null, ptr @container_device_attach, ptr @container_device_detach, ptr null, ptr null, %struct.acpi_hotplug_profile { %struct.kobject zeroinitializer, ptr null, ptr @container_device_online, i8 3 } }, align 8
@container_device_ids = internal constant [4 x %struct.acpi_device_id] [%struct.acpi_device_id { [16 x i8] c"ACPI0004\00\00\00\00\00\00\00\00", i64 0, i32 0, i32 0 }, %struct.acpi_device_id { [16 x i8] c"PNP0A05\00\00\00\00\00\00\00\00\00", i64 0, i32 0, i32 0 }, %struct.acpi_device_id { [16 x i8] c"PNP0A06\00\00\00\00\00\00\00\00\00", i64 0, i32 0, i32 0 }, %struct.acpi_device_id zeroinitializer], align 16
@container_subsys = external dso_local constant %struct.bus_type, align 8
@.str = private unnamed_addr constant [3 x i8] c"%s\00", align 1
@kmalloc_caches = external dso_local local_unnamed_addr global [3 x [14 x ptr]], align 16

; Function Attrs: cold fn_ret_thunk_extern nounwind null_pointer_is_valid optsize
define dso_local void @acpi_container_init() local_unnamed_addr #0 section ".init.text" align 16 {
  %1 = tail call i32 @acpi_scan_add_handler(ptr noundef nonnull @container_handler) #4
  ret void
}

; Function Attrs: null_pointer_is_valid
declare dso_local i32 @acpi_scan_add_handler(ptr noundef) local_unnamed_addr #1

; Function Attrs: fn_ret_thunk_extern nounwind null_pointer_is_valid
define internal i32 @container_device_attach(ptr noundef %0, ptr nocapture readnone %1) #2 align 16 {
  %3 = getelementptr inbounds i8, ptr %0, i64 116
  %4 = load i32, ptr %3, align 4
  %5 = and i32 %4, 256
  %6 = icmp eq i32 %5, 0
  br i1 %6, label %7, label %32

7:                                                ; preds = %2
  %8 = load ptr, ptr getelementptr inbounds ([3 x [14 x ptr]], ptr @kmalloc_caches, i64 0, i64 0, i64 10), align 16
  %9 = tail call noalias noundef align 8 dereferenceable_or_null(736) ptr @kmalloc_trace(ptr noundef %8, i32 noundef 3520, i64 noundef 736) #5
  %10 = icmp eq ptr %9, null
  br i1 %10, label %32, label %11

11:                                               ; preds = %7
  %12 = getelementptr inbounds i8, ptr %9, i64 728
  store ptr @acpi_container_offline, ptr %12, align 8
  %13 = getelementptr inbounds i8, ptr %9, i64 96
  store ptr @container_subsys, ptr %13, align 8
  %14 = getelementptr inbounds i8, ptr %0, i64 696
  %15 = load ptr, ptr %14, align 8
  %16 = icmp eq ptr %15, null
  br i1 %16, label %17, label %20

17:                                               ; preds = %11
  %18 = getelementptr inbounds i8, ptr %0, i64 616
  %19 = load ptr, ptr %18, align 8
  br label %20

20:                                               ; preds = %17, %11
  %21 = phi ptr [ %19, %17 ], [ %15, %11 ]
  %22 = tail call i32 (ptr, ptr, ...) @dev_set_name(ptr noundef nonnull %9, ptr noundef nonnull @.str, ptr noundef %21) #4
  %23 = icmp eq ptr %0, null
  %24 = getelementptr inbounds i8, ptr %0, i64 16
  %25 = select i1 %23, ptr null, ptr %24
  tail call void @set_primary_fwnode(ptr noundef nonnull %9, ptr noundef %25) #4
  %26 = getelementptr inbounds i8, ptr %9, i64 688
  store ptr @acpi_container_release, ptr %26, align 8
  %27 = tail call i32 @device_register(ptr noundef nonnull %9) #4
  %28 = icmp eq i32 %27, 0
  br i1 %28, label %30, label %29

29:                                               ; preds = %20
  tail call void @put_device(ptr noundef nonnull %9) #4
  br label %32

30:                                               ; preds = %20
  %31 = getelementptr inbounds i8, ptr %0, i64 608
  store ptr %9, ptr %31, align 8
  br label %32

32:                                               ; preds = %30, %29, %7, %2
  %33 = phi i32 [ %27, %29 ], [ 1, %30 ], [ 0, %2 ], [ -12, %7 ]
  ret i32 %33
}

; Function Attrs: fn_ret_thunk_extern nounwind null_pointer_is_valid
define internal void @container_device_detach(ptr nocapture noundef %0) #2 align 16 {
  %2 = getelementptr inbounds i8, ptr %0, i64 608
  %3 = load ptr, ptr %2, align 8
  store ptr null, ptr %2, align 8
  %4 = icmp eq ptr %3, null
  br i1 %4, label %6, label %5

5:                                                ; preds = %1
  tail call void @device_unregister(ptr noundef nonnull %3) #4
  br label %6

6:                                                ; preds = %5, %1
  ret void
}

; Function Attrs: fn_ret_thunk_extern nounwind null_pointer_is_valid
define internal void @container_device_online(ptr nocapture noundef readonly %0) #2 align 16 {
  %2 = getelementptr inbounds i8, ptr %0, i64 608
  %3 = load ptr, ptr %2, align 8
  %4 = tail call i32 @kobject_uevent(ptr noundef %3, i32 noundef 4) #4
  ret void
}

; Function Attrs: fn_ret_thunk_extern nounwind null_pointer_is_valid
define internal i32 @acpi_container_offline(ptr nocapture noundef readonly %0) #2 align 16 {
  %2 = getelementptr inbounds i8, ptr %0, i64 632
  %3 = load ptr, ptr %2, align 8
  %4 = tail call zeroext i1 @is_acpi_device_node(ptr noundef %3) #4
  %5 = getelementptr i8, ptr %3, i64 -16
  %6 = select i1 %4, ptr %5, ptr null
  %7 = tail call i32 @acpi_dev_for_each_child(ptr noundef %6, ptr noundef nonnull @check_offline, ptr noundef null) #4
  ret i32 %7
}

; Function Attrs: null_pointer_is_valid
declare dso_local i32 @dev_set_name(ptr noundef, ptr noundef, ...) local_unnamed_addr #1

; Function Attrs: null_pointer_is_valid
declare dso_local void @set_primary_fwnode(ptr noundef, ptr noundef) local_unnamed_addr #1

; Function Attrs: fn_ret_thunk_extern nounwind null_pointer_is_valid
define internal void @acpi_container_release(ptr noundef %0) #2 align 16 {
  tail call void @kfree(ptr noundef %0) #4
  ret void
}

; Function Attrs: null_pointer_is_valid
declare dso_local i32 @device_register(ptr noundef) local_unnamed_addr #1

; Function Attrs: null_pointer_is_valid
declare dso_local void @put_device(ptr noundef) local_unnamed_addr #1

; Function Attrs: null_pointer_is_valid allocsize(2)
declare dso_local noalias ptr @kmalloc_trace(ptr noundef, i32 noundef, i64 noundef) local_unnamed_addr #3

; Function Attrs: null_pointer_is_valid
declare dso_local i32 @acpi_dev_for_each_child(ptr noundef, ptr noundef, ptr noundef) local_unnamed_addr #1

; Function Attrs: null_pointer_is_valid
declare dso_local zeroext i1 @is_acpi_device_node(ptr noundef) local_unnamed_addr #1

; Function Attrs: fn_ret_thunk_extern nounwind null_pointer_is_valid
define internal i32 @check_offline(ptr noundef %0, ptr nocapture readnone %1) #2 align 16 {
  %3 = tail call zeroext i1 @acpi_scan_is_offline(ptr noundef %0, i1 noundef zeroext false) #4
  %4 = select i1 %3, i32 0, i32 -16
  ret i32 %4
}

; Function Attrs: null_pointer_is_valid
declare dso_local zeroext i1 @acpi_scan_is_offline(ptr noundef, i1 noundef zeroext) local_unnamed_addr #1

; Function Attrs: null_pointer_is_valid
declare dso_local void @kfree(ptr noundef) local_unnamed_addr #1

; Function Attrs: null_pointer_is_valid
declare dso_local void @device_unregister(ptr noundef) local_unnamed_addr #1

; Function Attrs: null_pointer_is_valid
declare dso_local i32 @kobject_uevent(ptr noundef, i32 noundef) local_unnamed_addr #1


!llvm.module.flags = !{!0, !1, !2, !3, !4}

!0 = !{i32 1, !"wchar_size", i32 2}
!1 = !{i32 8, !"cf-protection-branch", i32 1}
!2 = !{i32 4, !"function_return_thunk_extern", i32 1}
!3 = !{i32 4, !"indirect_branch_cs_prefix", i32 1}
!4 = !{i32 4, !"SkipRaxSetup", i32 1}
